target datalayout = "e-m:e-p270:32:32-p271:32:32-p272:64:64-i64:64-i128:128-f80:128-n8:16:32:64-S128"
target triple = "x86_64-pc-linux-gnu"

%struct.__ncnn_net_t = type { ptr, ptr }
%struct.__ncnn_net_custom_layer_factory_t = type { ptr, ptr, ptr, ptr }

; Function Attrs: mustprogress nounwind uwtable
define hidden void @ncnn_net_destroy(ptr noundef %0) #0 {
  %2 = alloca ptr, align 8
  %3 = alloca ptr, align 8
  %4 = alloca ptr, align 8
  store ptr %0, ptr %2, align 8
  %5 = load ptr, ptr %2, align 8
  %6 = getelementptr inbounds nuw %struct.__ncnn_net_t, ptr %5, i32 0, i32 0
  %7 = load ptr, ptr %6, align 8
  %8 = icmp eq ptr %7, null
  br i1 %8, label %13, label %9

9:                                                ; preds = %1
  %10 = load ptr, ptr %7, align 8
  %11 = getelementptr inbounds ptr, ptr %10, i64 1
  %12 = load ptr, ptr %11, align 8
  call void %12(ptr noundef nonnull align 8 dereferenceable(80) %7) #15
  br label %13

13:                                               ; preds = %9, %1
  %14 = load ptr, ptr %2, align 8
  %15 = getelementptr inbounds nuw %struct.__ncnn_net_t, ptr %14, i32 0, i32 1
  %16 = load ptr, ptr %15, align 8
  store ptr %16, ptr %3, align 8
  br label %17

17:                                               ; preds = %20, %13
  %18 = load ptr, ptr %3, align 8
  %19 = icmp ne ptr %18, null
  br i1 %19, label %20, label %26

20:                                               ; preds = %17
  %21 = load ptr, ptr %3, align 8
  %22 = getelementptr inbounds nuw %struct.__ncnn_net_custom_layer_factory_t, ptr %21, i32 0, i32 3
  %23 = load ptr, ptr %22, align 8
  store ptr %23, ptr %4, align 8
  %24 = load ptr, ptr %3, align 8
  call void @free(ptr noundef %24) #15
  %25 = load ptr, ptr %4, align 8
  store ptr %25, ptr %3, align 8
  br label %17, !llvm.loop !16

26:                                               ; preds = %17
  %27 = load ptr, ptr %2, align 8
  call void @free(ptr noundef %27) #15
  ret void
}