; Function Attrs: mustprogress nounwind uwtable
define hidden void @ncnn_net_destroy(ptr nocapture noundef %0) local_unnamed_addr #5 {
  %2 = load ptr, ptr %0, align 8
  %3 = icmp eq ptr %2, null
  br i1 %3, label %8, label %4

4:                                                ; preds = %1
  %5 = load ptr, ptr %2, align 8
  %6 = getelementptr inbounds i8, ptr %5, i64 8
  %7 = load ptr, ptr %6, align 8
  tail call void %7(ptr noundef nonnull align 8 dereferenceable(80) %2) #26
  br label %8

8:                                                ; preds = %4, %1
  %9 = getelementptr inbounds nuw i8, ptr %0, i64 8
  %10 = load ptr, ptr %9, align 8
  %.not8 = icmp eq ptr %10, null
  br i1 %.not8, label %._crit_edge, label %.lr.ph

.lr.ph:                                           ; preds = %8, %.lr.ph
  %.09 = phi ptr [ %12, %.lr.ph ], [ %10, %8 ]
  %11 = getelementptr inbounds nuw i8, ptr %.09, i64 24
  %12 = load ptr, ptr %11, align 8
  tail call void @free(ptr noundef nonnull %.09) #26
  %.not = icmp eq ptr %12, null
  br i1 %.not, label %._crit_edge, label %.lr.ph, !llvm.loop !15

._crit_edge:                                      ; preds = %.lr.ph, %8
  tail call void @free(ptr noundef %0) #26
  ret void
}